
RF_ATmega16_Receiver.elf:     file format elf32-avr

Sections:
Idx Name          Size      VMA       LMA       File off  Algn
  0 .text         00000706  00000000  00000000  00000094  2**1
                  CONTENTS, ALLOC, LOAD, READONLY, CODE
  1 .data         000000c2  00800060  00000706  0000079a  2**0
                  CONTENTS, ALLOC, LOAD, DATA
  2 .bss          00000051  00800122  00800122  0000085c  2**0
                  ALLOC

Disassembly of section .text:

00000000 <__vectors>:
   0:	0c 94 2a 00 	jmp	0x54	; 0x54 <__ctors_end>
   4:	0c 94 47 00 	jmp	0x8e	; 0x8e <__bad_interrupt>
   8:	0c 94 47 00 	jmp	0x8e	; 0x8e <__bad_interrupt>
   c:	0c 94 47 00 	jmp	0x8e	; 0x8e <__bad_interrupt>
  10:	0c 94 47 00 	jmp	0x8e	; 0x8e <__bad_interrupt>
  14:	0c 94 47 00 	jmp	0x8e	; 0x8e <__bad_interrupt>
  18:	0c 94 47 00 	jmp	0x8e	; 0x8e <__bad_interrupt>
  1c:	0c 94 47 00 	jmp	0x8e	; 0x8e <__bad_interrupt>
  20:	0c 94 47 00 	jmp	0x8e	; 0x8e <__bad_interrupt>
  24:	0c 94 47 00 	jmp	0x8e	; 0x8e <__bad_interrupt>
  28:	0c 94 47 00 	jmp	0x8e	; 0x8e <__bad_interrupt>
  2c:	0c 94 26 02 	jmp	0x44c	; 0x44c <__vector_11>
  30:	0c 94 47 00 	jmp	0x8e	; 0x8e <__bad_interrupt>
  34:	0c 94 47 00 	jmp	0x8e	; 0x8e <__bad_interrupt>
  38:	0c 94 47 00 	jmp	0x8e	; 0x8e <__bad_interrupt>
  3c:	0c 94 47 00 	jmp	0x8e	; 0x8e <__bad_interrupt>
  40:	0c 94 47 00 	jmp	0x8e	; 0x8e <__bad_interrupt>
  44:	0c 94 47 00 	jmp	0x8e	; 0x8e <__bad_interrupt>
  48:	0c 94 47 00 	jmp	0x8e	; 0x8e <__bad_interrupt>
  4c:	0c 94 47 00 	jmp	0x8e	; 0x8e <__bad_interrupt>
  50:	0c 94 47 00 	jmp	0x8e	; 0x8e <__bad_interrupt>

00000054 <__ctors_end>:
  54:	11 24       	eor	r1, r1
  56:	1f be       	out	0x3f, r1	; 63
  58:	cf e5       	ldi	r28, 0x5F	; 95
  5a:	d4 e0       	ldi	r29, 0x04	; 4
  5c:	de bf       	out	0x3e, r29	; 62
  5e:	cd bf       	out	0x3d, r28	; 61

00000060 <__do_copy_data>:
  60:	11 e0       	ldi	r17, 0x01	; 1
  62:	a0 e6       	ldi	r26, 0x60	; 96
  64:	b0 e0       	ldi	r27, 0x00	; 0
  66:	e6 e0       	ldi	r30, 0x06	; 6
  68:	f7 e0       	ldi	r31, 0x07	; 7
  6a:	02 c0       	rjmp	.+4      	; 0x70 <.do_copy_data_start>

0000006c <.do_copy_data_loop>:
  6c:	05 90       	lpm	r0, Z+
  6e:	0d 92       	st	X+, r0

00000070 <.do_copy_data_start>:
  70:	a2 32       	cpi	r26, 0x22	; 34
  72:	b1 07       	cpc	r27, r17
  74:	d9 f7       	brne	.-10     	; 0x6c <.do_copy_data_loop>

00000076 <__do_clear_bss>:
  76:	11 e0       	ldi	r17, 0x01	; 1
  78:	a2 e2       	ldi	r26, 0x22	; 34
  7a:	b1 e0       	ldi	r27, 0x01	; 1
  7c:	01 c0       	rjmp	.+2      	; 0x80 <.do_clear_bss_start>

0000007e <.do_clear_bss_loop>:
  7e:	1d 92       	st	X+, r1

00000080 <.do_clear_bss_start>:
  80:	a3 37       	cpi	r26, 0x73	; 115
  82:	b1 07       	cpc	r27, r17
  84:	e1 f7       	brne	.-8      	; 0x7e <.do_clear_bss_loop>
  86:	0e 94 cc 02 	call	0x598	; 0x598 <main>
  8a:	0c 94 81 03 	jmp	0x702	; 0x702 <_exit>

0000008e <__bad_interrupt>:
  8e:	0c 94 00 00 	jmp	0	; 0x0 <__vectors>

00000092 <vInitPipe>:
  92:	10 92 22 01 	sts	0x0122, r1
  96:	10 92 23 01 	sts	0x0123, r1
  9a:	10 92 24 01 	sts	0x0124, r1
  9e:	eb e2       	ldi	r30, 0x2B	; 43
  a0:	f1 e0       	ldi	r31, 0x01	; 1
  a2:	11 92       	st	Z+, r1
  a4:	11 92       	st	Z+, r1
  a6:	81 e0       	ldi	r24, 0x01	; 1
  a8:	e3 35       	cpi	r30, 0x53	; 83
  aa:	f8 07       	cpc	r31, r24
  ac:	d1 f7       	brne	.-12     	; 0xa2 <vInitPipe+0x10>
  ae:	08 95       	ret

000000b0 <vGetPendingTask>:
  b0:	80 91 22 01 	lds	r24, 0x0122
  b4:	90 91 23 01 	lds	r25, 0x0123
  b8:	89 17       	cp	r24, r25
  ba:	19 f4       	brne	.+6      	; 0xc2 <vGetPendingTask+0x12>
  bc:	e0 e0       	ldi	r30, 0x00	; 0
  be:	f0 e0       	ldi	r31, 0x00	; 0
  c0:	21 c0       	rjmp	.+66     	; 0x104 <vGetPendingTask+0x54>
  c2:	e8 2f       	mov	r30, r24
  c4:	f0 e0       	ldi	r31, 0x00	; 0
  c6:	ee 0f       	add	r30, r30
  c8:	ff 1f       	adc	r31, r31
  ca:	e5 5d       	subi	r30, 0xD5	; 213
  cc:	fe 4f       	sbci	r31, 0xFE	; 254
  ce:	01 90       	ld	r0, Z+
  d0:	f0 81       	ld	r31, Z
  d2:	e0 2d       	mov	r30, r0
  d4:	8f 5f       	subi	r24, 0xFF	; 255
  d6:	84 31       	cpi	r24, 0x14	; 20
  d8:	09 f4       	brne	.+2      	; 0xdc <vGetPendingTask+0x2c>
  da:	80 e0       	ldi	r24, 0x00	; 0
  dc:	80 93 22 01 	sts	0x0122, r24
  e0:	89 17       	cp	r24, r25
  e2:	49 f4       	brne	.+18     	; 0xf6 <vGetPendingTask+0x46>
  e4:	80 91 25 01 	lds	r24, 0x0125
  e8:	90 91 26 01 	lds	r25, 0x0126
  ec:	8e 7f       	andi	r24, 0xFE	; 254
  ee:	90 93 26 01 	sts	0x0126, r25
  f2:	80 93 25 01 	sts	0x0125, r24
  f6:	80 91 24 01 	lds	r24, 0x0124
  fa:	88 23       	and	r24, r24
  fc:	19 f0       	breq	.+6      	; 0x104 <vGetPendingTask+0x54>
  fe:	81 50       	subi	r24, 0x01	; 1
 100:	80 93 24 01 	sts	0x0124, r24
 104:	cf 01       	movw	r24, r30
 106:	08 95       	ret

00000108 <vDispathTask>:
 108:	80 91 25 01 	lds	r24, 0x0125
 10c:	80 ff       	sbrs	r24, 0
 10e:	06 c0       	rjmp	.+12     	; 0x11c <vDispathTask+0x14>
 110:	0e 94 58 00 	call	0xb0	; 0xb0 <vGetPendingTask>
 114:	fc 01       	movw	r30, r24
 116:	00 97       	sbiw	r24, 0x00	; 0
 118:	09 f0       	breq	.+2      	; 0x11c <vDispathTask+0x14>
 11a:	09 95       	icall
 11c:	08 95       	ret

0000011e <vSetPendingTask>:
 11e:	9c 01       	movw	r18, r24
 120:	40 91 24 01 	lds	r20, 0x0124
 124:	43 31       	cpi	r20, 0x13	; 19
 126:	10 f0       	brcs	.+4      	; 0x12c <vSetPendingTask+0xe>
 128:	80 e0       	ldi	r24, 0x00	; 0
 12a:	08 95       	ret
 12c:	80 91 23 01 	lds	r24, 0x0123
 130:	e8 2f       	mov	r30, r24
 132:	f0 e0       	ldi	r31, 0x00	; 0
 134:	ee 0f       	add	r30, r30
 136:	ff 1f       	adc	r31, r31
 138:	e5 5d       	subi	r30, 0xD5	; 213
 13a:	fe 4f       	sbci	r31, 0xFE	; 254
 13c:	31 83       	std	Z+1, r19	; 0x01
 13e:	20 83       	st	Z, r18
 140:	20 91 25 01 	lds	r18, 0x0125
 144:	30 91 26 01 	lds	r19, 0x0126
 148:	21 60       	ori	r18, 0x01	; 1
 14a:	30 93 26 01 	sts	0x0126, r19
 14e:	20 93 25 01 	sts	0x0125, r18
 152:	8f 5f       	subi	r24, 0xFF	; 255
 154:	84 31       	cpi	r24, 0x14	; 20
 156:	09 f4       	brne	.+2      	; 0x15a <vSetPendingTask+0x3c>
 158:	80 e0       	ldi	r24, 0x00	; 0
 15a:	80 93 23 01 	sts	0x0123, r24
 15e:	4f 5f       	subi	r20, 0xFF	; 255
 160:	40 93 24 01 	sts	0x0124, r20
 164:	81 e0       	ldi	r24, 0x01	; 1
 166:	08 95       	ret

00000168 <vTaks_Delay1s>:
 168:	80 e0       	ldi	r24, 0x00	; 0
 16a:	90 e0       	ldi	r25, 0x00	; 0
 16c:	20 e2       	ldi	r18, 0x20	; 32
 16e:	3e e4       	ldi	r19, 0x4E	; 78
 170:	f9 01       	movw	r30, r18
 172:	31 97       	sbiw	r30, 0x01	; 1
 174:	f1 f7       	brne	.-4      	; 0x172 <vTaks_Delay1s+0xa>
 176:	01 96       	adiw	r24, 0x01	; 1
 178:	84 36       	cpi	r24, 0x64	; 100
 17a:	91 05       	cpc	r25, r1
 17c:	c9 f7       	brne	.-14     	; 0x170 <vTaks_Delay1s+0x8>
 17e:	08 95       	ret

00000180 <vTaks_TurnOnLed1>:
 180:	d0 9a       	sbi	0x1a, 0	; 26
 182:	d8 98       	cbi	0x1b, 0	; 27
 184:	08 95       	ret

00000186 <vTaks_TurnOffLed1>:
 186:	d0 98       	cbi	0x1a, 0	; 26
 188:	d8 9a       	sbi	0x1b, 0	; 27
 18a:	08 95       	ret

0000018c <vTaks_TurnOnLed2>:
 18c:	d1 9a       	sbi	0x1a, 1	; 26
 18e:	d9 98       	cbi	0x1b, 1	; 27
 190:	08 95       	ret

00000192 <vTaks_TurnOffLed2>:
 192:	d1 98       	cbi	0x1a, 1	; 26
 194:	d9 9a       	sbi	0x1b, 1	; 27
 196:	08 95       	ret

00000198 <vTaks_WaitForSwitch_1>:
 198:	84 99       	sbic	0x10, 4	; 16
 19a:	fe cf       	rjmp	.-4      	; 0x198 <vTaks_WaitForSwitch_1>
 19c:	08 95       	ret

0000019e <vTask_WaitForSwitch_2>:
 19e:	86 99       	sbic	0x10, 6	; 16
 1a0:	fe cf       	rjmp	.-4      	; 0x19e <vTask_WaitForSwitch_2>
 1a2:	08 95       	ret

000001a4 <vTask_BlinkDiode1>:
 1a4:	d0 9a       	sbi	0x1a, 0	; 26
 1a6:	8b b3       	in	r24, 0x1b	; 27
 1a8:	91 e0       	ldi	r25, 0x01	; 1
 1aa:	89 27       	eor	r24, r25
 1ac:	8b bb       	out	0x1b, r24	; 27
 1ae:	80 e1       	ldi	r24, 0x10	; 16
 1b0:	97 e2       	ldi	r25, 0x27	; 39
 1b2:	28 ec       	ldi	r18, 0xC8	; 200
 1b4:	30 e0       	ldi	r19, 0x00	; 0
 1b6:	f9 01       	movw	r30, r18
 1b8:	31 97       	sbiw	r30, 0x01	; 1
 1ba:	f1 f7       	brne	.-4      	; 0x1b8 <vTask_BlinkDiode1+0x14>
 1bc:	01 97       	sbiw	r24, 0x01	; 1
 1be:	d9 f7       	brne	.-10     	; 0x1b6 <vTask_BlinkDiode1+0x12>
 1c0:	d0 9a       	sbi	0x1a, 0	; 26
 1c2:	8b b3       	in	r24, 0x1b	; 27
 1c4:	91 e0       	ldi	r25, 0x01	; 1
 1c6:	89 27       	eor	r24, r25
 1c8:	8b bb       	out	0x1b, r24	; 27
 1ca:	08 95       	ret

000001cc <LCD_SEND>:
 1cc:	98 2f       	mov	r25, r24
 1ce:	66 23       	and	r22, r22
 1d0:	11 f0       	breq	.+4      	; 0x1d6 <LCD_SEND+0xa>
 1d2:	db 9a       	sbi	0x1b, 3	; 27
 1d4:	01 c0       	rjmp	.+2      	; 0x1d8 <LCD_SEND+0xc>
 1d6:	db 98       	cbi	0x1b, 3	; 27
 1d8:	20 e0       	ldi	r18, 0x00	; 0
 1da:	30 e0       	ldi	r19, 0x00	; 0
 1dc:	dc 9a       	sbi	0x1b, 4	; 27
 1de:	88 b3       	in	r24, 0x18	; 24
 1e0:	8f 70       	andi	r24, 0x0F	; 15
 1e2:	88 bb       	out	0x18, r24	; 24
 1e4:	89 2f       	mov	r24, r25
 1e6:	94 fd       	sbrc	r25, 4
 1e8:	c4 9a       	sbi	0x18, 4	; 24
 1ea:	85 fd       	sbrc	r24, 5
 1ec:	c5 9a       	sbi	0x18, 5	; 24
 1ee:	86 fd       	sbrc	r24, 6
 1f0:	c6 9a       	sbi	0x18, 6	; 24
 1f2:	97 fd       	sbrc	r25, 7
 1f4:	c7 9a       	sbi	0x18, 7	; 24
 1f6:	dc 98       	cbi	0x1b, 4	; 27
 1f8:	2f 5f       	subi	r18, 0xFF	; 255
 1fa:	3f 4f       	sbci	r19, 0xFF	; 255
 1fc:	22 30       	cpi	r18, 0x02	; 2
 1fe:	31 05       	cpc	r19, r1
 200:	19 f0       	breq	.+6      	; 0x208 <LCD_SEND+0x3c>
 202:	92 95       	swap	r25
 204:	90 7f       	andi	r25, 0xF0	; 240
 206:	ea cf       	rjmp	.-44     	; 0x1dc <LCD_SEND+0x10>
 208:	85 e8       	ldi	r24, 0x85	; 133
 20a:	8a 95       	dec	r24
 20c:	f1 f7       	brne	.-4      	; 0x20a <LCD_SEND+0x3e>
 20e:	08 95       	ret

00000210 <LCD_Czysc>:
 210:	0f 93       	push	r16
 212:	1f 93       	push	r17
 214:	81 e0       	ldi	r24, 0x01	; 1
 216:	60 e0       	ldi	r22, 0x00	; 0
 218:	0e 94 e6 00 	call	0x1cc	; 0x1cc <LCD_SEND>
 21c:	00 ea       	ldi	r16, 0xA0	; 160
 21e:	1f e0       	ldi	r17, 0x0F	; 15
 220:	c8 01       	movw	r24, r16
 222:	01 97       	sbiw	r24, 0x01	; 1
 224:	f1 f7       	brne	.-4      	; 0x222 <LCD_Czysc+0x12>
 226:	82 e0       	ldi	r24, 0x02	; 2
 228:	60 e0       	ldi	r22, 0x00	; 0
 22a:	0e 94 e6 00 	call	0x1cc	; 0x1cc <LCD_SEND>
 22e:	c8 01       	movw	r24, r16
 230:	01 97       	sbiw	r24, 0x01	; 1
 232:	f1 f7       	brne	.-4      	; 0x230 <LCD_Czysc+0x20>
 234:	1f 91       	pop	r17
 236:	0f 91       	pop	r16
 238:	08 95       	ret

0000023a <LCD_Ini>:
 23a:	87 b3       	in	r24, 0x17	; 23
 23c:	80 6f       	ori	r24, 0xF0	; 240
 23e:	87 bb       	out	0x17, r24	; 23
 240:	8a b3       	in	r24, 0x1a	; 26
 242:	88 61       	ori	r24, 0x18	; 24
 244:	8a bb       	out	0x1a, r24	; 26
 246:	db 98       	cbi	0x1b, 3	; 27
 248:	dc 9a       	sbi	0x1b, 4	; 27
 24a:	85 e8       	ldi	r24, 0x85	; 133
 24c:	8a 95       	dec	r24
 24e:	f1 f7       	brne	.-4      	; 0x24c <LCD_Ini+0x12>
 250:	88 b3       	in	r24, 0x18	; 24
 252:	80 63       	ori	r24, 0x30	; 48
 254:	88 bb       	out	0x18, r24	; 24
 256:	88 b3       	in	r24, 0x18	; 24
 258:	8f 73       	andi	r24, 0x3F	; 63
 25a:	88 bb       	out	0x18, r24	; 24
 25c:	dc 98       	cbi	0x1b, 4	; 27
 25e:	80 e1       	ldi	r24, 0x10	; 16
 260:	97 e2       	ldi	r25, 0x27	; 39
 262:	01 97       	sbiw	r24, 0x01	; 1
 264:	f1 f7       	brne	.-4      	; 0x262 <LCD_Ini+0x28>
 266:	dc 9a       	sbi	0x1b, 4	; 27
 268:	22 e0       	ldi	r18, 0x02	; 2
 26a:	82 2f       	mov	r24, r18
 26c:	8a 95       	dec	r24
 26e:	f1 f7       	brne	.-4      	; 0x26c <LCD_Ini+0x32>
 270:	dc 98       	cbi	0x1b, 4	; 27
 272:	88 ec       	ldi	r24, 0xC8	; 200
 274:	90 e0       	ldi	r25, 0x00	; 0
 276:	fc 01       	movw	r30, r24
 278:	31 97       	sbiw	r30, 0x01	; 1
 27a:	f1 f7       	brne	.-4      	; 0x278 <LCD_Ini+0x3e>
 27c:	dc 9a       	sbi	0x1b, 4	; 27
 27e:	2a 95       	dec	r18
 280:	f1 f7       	brne	.-4      	; 0x27e <LCD_Ini+0x44>
 282:	dc 98       	cbi	0x1b, 4	; 27
 284:	fc 01       	movw	r30, r24
 286:	31 97       	sbiw	r30, 0x01	; 1
 288:	f1 f7       	brne	.-4      	; 0x286 <LCD_Ini+0x4c>
 28a:	c4 98       	cbi	0x18, 4	; 24
 28c:	dc 9a       	sbi	0x1b, 4	; 27
 28e:	dc 98       	cbi	0x1b, 4	; 27
 290:	01 97       	sbiw	r24, 0x01	; 1
 292:	f1 f7       	brne	.-4      	; 0x290 <LCD_Ini+0x56>
 294:	88 e2       	ldi	r24, 0x28	; 40
 296:	60 e0       	ldi	r22, 0x00	; 0
 298:	0e 94 e6 00 	call	0x1cc	; 0x1cc <LCD_SEND>
 29c:	86 e0       	ldi	r24, 0x06	; 6
 29e:	60 e0       	ldi	r22, 0x00	; 0
 2a0:	0e 94 e6 00 	call	0x1cc	; 0x1cc <LCD_SEND>
 2a4:	8c e0       	ldi	r24, 0x0C	; 12
 2a6:	60 e0       	ldi	r22, 0x00	; 0
 2a8:	0e 94 e6 00 	call	0x1cc	; 0x1cc <LCD_SEND>
 2ac:	0e 94 08 01 	call	0x210	; 0x210 <LCD_Czysc>
 2b0:	08 95       	ret

000002b2 <LCD_ZapiszText>:
 2b2:	cf 93       	push	r28
 2b4:	df 93       	push	r29
 2b6:	ec 01       	movw	r28, r24
 2b8:	04 c0       	rjmp	.+8      	; 0x2c2 <LCD_ZapiszText+0x10>
 2ba:	21 96       	adiw	r28, 0x01	; 1
 2bc:	61 e0       	ldi	r22, 0x01	; 1
 2be:	0e 94 e6 00 	call	0x1cc	; 0x1cc <LCD_SEND>
 2c2:	88 81       	ld	r24, Y
 2c4:	88 23       	and	r24, r24
 2c6:	c9 f7       	brne	.-14     	; 0x2ba <LCD_ZapiszText+0x8>
 2c8:	df 91       	pop	r29
 2ca:	cf 91       	pop	r28
 2cc:	08 95       	ret

000002ce <LCD_XY>:
 2ce:	62 95       	swap	r22
 2d0:	66 0f       	add	r22, r22
 2d2:	66 0f       	add	r22, r22
 2d4:	60 7c       	andi	r22, 0xC0	; 192
 2d6:	68 0f       	add	r22, r24
 2d8:	86 2f       	mov	r24, r22
 2da:	80 68       	ori	r24, 0x80	; 128
 2dc:	60 e0       	ldi	r22, 0x00	; 0
 2de:	0e 94 e6 00 	call	0x1cc	; 0x1cc <LCD_SEND>
 2e2:	08 95       	ret

000002e4 <LCD_LICZBA>:
 2e4:	cf 93       	push	r28
 2e6:	df 93       	push	r29
 2e8:	ec 01       	movw	r28, r24
 2ea:	84 36       	cpi	r24, 0x64	; 100
 2ec:	91 05       	cpc	r25, r1
 2ee:	80 f0       	brcs	.+32     	; 0x310 <LCD_LICZBA+0x2c>
 2f0:	64 e6       	ldi	r22, 0x64	; 100
 2f2:	70 e0       	ldi	r23, 0x00	; 0
 2f4:	0e 94 4b 03 	call	0x696	; 0x696 <__udivmodhi4>
 2f8:	86 2f       	mov	r24, r22
 2fa:	80 5d       	subi	r24, 0xD0	; 208
 2fc:	61 e0       	ldi	r22, 0x01	; 1
 2fe:	0e 94 e6 00 	call	0x1cc	; 0x1cc <LCD_SEND>
 302:	ce 01       	movw	r24, r28
 304:	64 e6       	ldi	r22, 0x64	; 100
 306:	70 e0       	ldi	r23, 0x00	; 0
 308:	0e 94 4b 03 	call	0x696	; 0x696 <__udivmodhi4>
 30c:	ec 01       	movw	r28, r24
 30e:	08 c0       	rjmp	.+16     	; 0x320 <LCD_LICZBA+0x3c>
 310:	64 e6       	ldi	r22, 0x64	; 100
 312:	70 e0       	ldi	r23, 0x00	; 0
 314:	0e 94 4b 03 	call	0x696	; 0x696 <__udivmodhi4>
 318:	ec 01       	movw	r28, r24
 31a:	8a 30       	cpi	r24, 0x0A	; 10
 31c:	91 05       	cpc	r25, r1
 31e:	50 f0       	brcs	.+20     	; 0x334 <LCD_LICZBA+0x50>
 320:	ce 01       	movw	r24, r28
 322:	6a e0       	ldi	r22, 0x0A	; 10
 324:	70 e0       	ldi	r23, 0x00	; 0
 326:	0e 94 4b 03 	call	0x696	; 0x696 <__udivmodhi4>
 32a:	86 2f       	mov	r24, r22
 32c:	80 5d       	subi	r24, 0xD0	; 208
 32e:	61 e0       	ldi	r22, 0x01	; 1
 330:	0e 94 e6 00 	call	0x1cc	; 0x1cc <LCD_SEND>
 334:	ce 01       	movw	r24, r28
 336:	6a e0       	ldi	r22, 0x0A	; 10
 338:	70 e0       	ldi	r23, 0x00	; 0
 33a:	0e 94 4b 03 	call	0x696	; 0x696 <__udivmodhi4>
 33e:	80 5d       	subi	r24, 0xD0	; 208
 340:	61 e0       	ldi	r22, 0x01	; 1
 342:	0e 94 e6 00 	call	0x1cc	; 0x1cc <LCD_SEND>
 346:	df 91       	pop	r29
 348:	cf 91       	pop	r28
 34a:	08 95       	ret

0000034c <POLSKIE_ZNAKI>:
 34c:	ef 92       	push	r14
 34e:	ff 92       	push	r15
 350:	0f 93       	push	r16
 352:	1f 93       	push	r17
 354:	df 93       	push	r29
 356:	cf 93       	push	r28
 358:	cd b7       	in	r28, 0x3d	; 61
 35a:	de b7       	in	r29, 0x3e	; 62
 35c:	c0 58       	subi	r28, 0x80	; 128
 35e:	d0 40       	sbci	r29, 0x00	; 0
 360:	0f b6       	in	r0, 0x3f	; 63
 362:	f8 94       	cli
 364:	de bf       	out	0x3e, r29	; 62
 366:	0f be       	out	0x3f, r0	; 63
 368:	cd bf       	out	0x3d, r28	; 61
 36a:	de 01       	movw	r26, r28
 36c:	11 96       	adiw	r26, 0x01	; 1
 36e:	e0 e7       	ldi	r30, 0x70	; 112
 370:	f0 e0       	ldi	r31, 0x00	; 0
 372:	80 e8       	ldi	r24, 0x80	; 128
 374:	01 90       	ld	r0, Z+
 376:	0d 92       	st	X+, r0
 378:	81 50       	subi	r24, 0x01	; 1
 37a:	e1 f7       	brne	.-8      	; 0x374 <POLSKIE_ZNAKI+0x28>
 37c:	80 e4       	ldi	r24, 0x40	; 64
 37e:	60 e0       	ldi	r22, 0x00	; 0
 380:	0e 94 e6 00 	call	0x1cc	; 0x1cc <LCD_SEND>
 384:	8e 01       	movw	r16, r28
 386:	0f 5f       	subi	r16, 0xFF	; 255
 388:	1f 4f       	sbci	r17, 0xFF	; 255
 38a:	81 e8       	ldi	r24, 0x81	; 129
 38c:	e8 2e       	mov	r14, r24
 38e:	f1 2c       	mov	r15, r1
 390:	ec 0e       	add	r14, r28
 392:	fd 1e       	adc	r15, r29
 394:	f8 01       	movw	r30, r16
 396:	80 81       	ld	r24, Z
 398:	61 e0       	ldi	r22, 0x01	; 1
 39a:	0e 94 e6 00 	call	0x1cc	; 0x1cc <LCD_SEND>
 39e:	0e 5f       	subi	r16, 0xFE	; 254
 3a0:	1f 4f       	sbci	r17, 0xFF	; 255
 3a2:	0e 15       	cp	r16, r14
 3a4:	1f 05       	cpc	r17, r15
 3a6:	b1 f7       	brne	.-20     	; 0x394 <POLSKIE_ZNAKI+0x48>
 3a8:	80 e8       	ldi	r24, 0x80	; 128
 3aa:	60 e0       	ldi	r22, 0x00	; 0
 3ac:	0e 94 e6 00 	call	0x1cc	; 0x1cc <LCD_SEND>
 3b0:	c0 58       	subi	r28, 0x80	; 128
 3b2:	df 4f       	sbci	r29, 0xFF	; 255
 3b4:	0f b6       	in	r0, 0x3f	; 63
 3b6:	f8 94       	cli
 3b8:	de bf       	out	0x3e, r29	; 62
 3ba:	0f be       	out	0x3f, r0	; 63
 3bc:	cd bf       	out	0x3d, r28	; 61
 3be:	cf 91       	pop	r28
 3c0:	df 91       	pop	r29
 3c2:	1f 91       	pop	r17
 3c4:	0f 91       	pop	r16
 3c6:	ff 90       	pop	r15
 3c8:	ef 90       	pop	r14
 3ca:	08 95       	ret

000003cc <ZNAKI_SPEC>:
 3cc:	ef 92       	push	r14
 3ce:	ff 92       	push	r15
 3d0:	0f 93       	push	r16
 3d2:	1f 93       	push	r17
 3d4:	df 93       	push	r29
 3d6:	cf 93       	push	r28
 3d8:	cd b7       	in	r28, 0x3d	; 61
 3da:	de b7       	in	r29, 0x3e	; 62
 3dc:	60 97       	sbiw	r28, 0x10	; 16
 3de:	0f b6       	in	r0, 0x3f	; 63
 3e0:	f8 94       	cli
 3e2:	de bf       	out	0x3e, r29	; 62
 3e4:	0f be       	out	0x3f, r0	; 63
 3e6:	cd bf       	out	0x3d, r28	; 61
 3e8:	de 01       	movw	r26, r28
 3ea:	11 96       	adiw	r26, 0x01	; 1
 3ec:	e0 e6       	ldi	r30, 0x60	; 96
 3ee:	f0 e0       	ldi	r31, 0x00	; 0
 3f0:	80 e1       	ldi	r24, 0x10	; 16
 3f2:	01 90       	ld	r0, Z+
 3f4:	0d 92       	st	X+, r0
 3f6:	81 50       	subi	r24, 0x01	; 1
 3f8:	e1 f7       	brne	.-8      	; 0x3f2 <ZNAKI_SPEC+0x26>
 3fa:	80 e4       	ldi	r24, 0x40	; 64
 3fc:	60 e0       	ldi	r22, 0x00	; 0
 3fe:	0e 94 e6 00 	call	0x1cc	; 0x1cc <LCD_SEND>
 402:	8e 01       	movw	r16, r28
 404:	0f 5f       	subi	r16, 0xFF	; 255
 406:	1f 4f       	sbci	r17, 0xFF	; 255
 408:	91 e1       	ldi	r25, 0x11	; 17
 40a:	e9 2e       	mov	r14, r25
 40c:	f1 2c       	mov	r15, r1
 40e:	ec 0e       	add	r14, r28
 410:	fd 1e       	adc	r15, r29
 412:	f8 01       	movw	r30, r16
 414:	80 81       	ld	r24, Z
 416:	61 e0       	ldi	r22, 0x01	; 1
 418:	0e 94 e6 00 	call	0x1cc	; 0x1cc <LCD_SEND>
 41c:	0e 5f       	subi	r16, 0xFE	; 254
 41e:	1f 4f       	sbci	r17, 0xFF	; 255
 420:	0e 15       	cp	r16, r14
 422:	1f 05       	cpc	r17, r15
 424:	b1 f7       	brne	.-20     	; 0x412 <ZNAKI_SPEC+0x46>
 426:	80 e8       	ldi	r24, 0x80	; 128
 428:	60 e0       	ldi	r22, 0x00	; 0
 42a:	0e 94 e6 00 	call	0x1cc	; 0x1cc <LCD_SEND>
 42e:	60 96       	adiw	r28, 0x10	; 16
 430:	0f b6       	in	r0, 0x3f	; 63
 432:	f8 94       	cli
 434:	de bf       	out	0x3e, r29	; 62
 436:	0f be       	out	0x3f, r0	; 63
 438:	cd bf       	out	0x3d, r28	; 61
 43a:	cf 91       	pop	r28
 43c:	df 91       	pop	r29
 43e:	1f 91       	pop	r17
 440:	0f 91       	pop	r16
 442:	ff 90       	pop	r15
 444:	ef 90       	pop	r14
 446:	08 95       	ret

00000448 <vEnableInterrupts>:
 448:	78 94       	sei
 44a:	08 95       	ret

0000044c <__vector_11>:
 44c:	1f 92       	push	r1
 44e:	0f 92       	push	r0
 450:	0f b6       	in	r0, 0x3f	; 63
 452:	0f 92       	push	r0
 454:	11 24       	eor	r1, r1
 456:	0f 93       	push	r16
 458:	1f 93       	push	r17
 45a:	2f 93       	push	r18
 45c:	3f 93       	push	r19
 45e:	4f 93       	push	r20
 460:	5f 93       	push	r21
 462:	6f 93       	push	r22
 464:	7f 93       	push	r23
 466:	8f 93       	push	r24
 468:	9f 93       	push	r25
 46a:	af 93       	push	r26
 46c:	bf 93       	push	r27
 46e:	ef 93       	push	r30
 470:	ff 93       	push	r31
 472:	0c b1       	in	r16, 0x0c	; 12
 474:	80 91 27 01 	lds	r24, 0x0127
 478:	8a 32       	cpi	r24, 0x2A	; 42
 47a:	b9 f4       	brne	.+46     	; 0x4aa <__stack+0x4b>
 47c:	0a 33       	cpi	r16, 0x3A	; 58
 47e:	a9 f4       	brne	.+42     	; 0x4aa <__stack+0x4b>
 480:	80 91 29 01 	lds	r24, 0x0129
 484:	90 91 2a 01 	lds	r25, 0x012A
 488:	89 2b       	or	r24, r25
 48a:	79 f4       	brne	.+30     	; 0x4aa <__stack+0x4b>
 48c:	80 91 29 01 	lds	r24, 0x0129
 490:	90 91 2a 01 	lds	r25, 0x012A
 494:	20 91 27 01 	lds	r18, 0x0127
 498:	fc 01       	movw	r30, r24
 49a:	ed 5a       	subi	r30, 0xAD	; 173
 49c:	fe 4f       	sbci	r31, 0xFE	; 254
 49e:	20 83       	st	Z, r18
 4a0:	01 96       	adiw	r24, 0x01	; 1
 4a2:	90 93 2a 01 	sts	0x012A, r25
 4a6:	80 93 29 01 	sts	0x0129, r24
 4aa:	80 91 29 01 	lds	r24, 0x0129
 4ae:	90 91 2a 01 	lds	r25, 0x012A
 4b2:	89 2b       	or	r24, r25
 4b4:	e1 f0       	breq	.+56     	; 0x4ee <__stack+0x8f>
 4b6:	80 91 29 01 	lds	r24, 0x0129
 4ba:	90 91 2a 01 	lds	r25, 0x012A
 4be:	fc 01       	movw	r30, r24
 4c0:	ed 5a       	subi	r30, 0xAD	; 173
 4c2:	fe 4f       	sbci	r31, 0xFE	; 254
 4c4:	00 83       	st	Z, r16
 4c6:	01 96       	adiw	r24, 0x01	; 1
 4c8:	90 93 2a 01 	sts	0x012A, r25
 4cc:	80 93 29 01 	sts	0x0129, r24
 4d0:	80 91 29 01 	lds	r24, 0x0129
 4d4:	90 91 2a 01 	lds	r25, 0x012A
 4d8:	80 97       	sbiw	r24, 0x20	; 32
 4da:	49 f4       	brne	.+18     	; 0x4ee <__stack+0x8f>
 4dc:	80 91 29 01 	lds	r24, 0x0129
 4e0:	90 91 2a 01 	lds	r25, 0x012A
 4e4:	01 97       	sbiw	r24, 0x01	; 1
 4e6:	90 93 2a 01 	sts	0x012A, r25
 4ea:	80 93 29 01 	sts	0x0129, r24
 4ee:	80 91 27 01 	lds	r24, 0x0127
 4f2:	8a 33       	cpi	r24, 0x3A	; 58
 4f4:	e1 f5       	brne	.+120    	; 0x56e <__stack+0x10f>
 4f6:	03 32       	cpi	r16, 0x23	; 35
 4f8:	d1 f5       	brne	.+116    	; 0x56e <__stack+0x10f>
 4fa:	80 91 29 01 	lds	r24, 0x0129
 4fe:	90 91 2a 01 	lds	r25, 0x012A
 502:	08 97       	sbiw	r24, 0x08	; 8
 504:	a0 f1       	brcs	.+104    	; 0x56e <__stack+0x10f>
 506:	80 91 29 01 	lds	r24, 0x0129
 50a:	90 91 2a 01 	lds	r25, 0x012A
 50e:	fc 01       	movw	r30, r24
 510:	ed 5a       	subi	r30, 0xAD	; 173
 512:	fe 4f       	sbci	r31, 0xFE	; 254
 514:	10 82       	st	Z, r1
 516:	01 96       	adiw	r24, 0x01	; 1
 518:	90 93 2a 01 	sts	0x012A, r25
 51c:	80 93 29 01 	sts	0x0129, r24
 520:	10 92 2a 01 	sts	0x012A, r1
 524:	10 92 29 01 	sts	0x0129, r1
 528:	80 91 55 01 	lds	r24, 0x0155
 52c:	80 53       	subi	r24, 0x30	; 48
 52e:	80 93 55 01 	sts	0x0155, r24
 532:	80 91 56 01 	lds	r24, 0x0156
 536:	80 53       	subi	r24, 0x30	; 48
 538:	80 93 56 01 	sts	0x0156, r24
 53c:	80 91 55 01 	lds	r24, 0x0155
 540:	10 91 56 01 	lds	r17, 0x0156
 544:	2a e0       	ldi	r18, 0x0A	; 10
 546:	82 9f       	mul	r24, r18
 548:	c0 01       	movw	r24, r0
 54a:	11 24       	eor	r1, r1
 54c:	18 0f       	add	r17, r24
 54e:	80 91 28 01 	lds	r24, 0x0128
 552:	18 17       	cp	r17, r24
 554:	61 f0       	breq	.+24     	; 0x56e <__stack+0x10f>
 556:	82 ed       	ldi	r24, 0xD2	; 210
 558:	90 e0       	ldi	r25, 0x00	; 0
 55a:	0e 94 8f 00 	call	0x11e	; 0x11e <vSetPendingTask>
 55e:	0e 94 08 01 	call	0x210	; 0x210 <LCD_Czysc>
 562:	88 e5       	ldi	r24, 0x58	; 88
 564:	91 e0       	ldi	r25, 0x01	; 1
 566:	0e 94 59 01 	call	0x2b2	; 0x2b2 <LCD_ZapiszText>
 56a:	10 93 28 01 	sts	0x0128, r17
 56e:	00 93 27 01 	sts	0x0127, r16
 572:	ff 91       	pop	r31
 574:	ef 91       	pop	r30
 576:	bf 91       	pop	r27
 578:	af 91       	pop	r26
 57a:	9f 91       	pop	r25
 57c:	8f 91       	pop	r24
 57e:	7f 91       	pop	r23
 580:	6f 91       	pop	r22
 582:	5f 91       	pop	r21
 584:	4f 91       	pop	r20
 586:	3f 91       	pop	r19
 588:	2f 91       	pop	r18
 58a:	1f 91       	pop	r17
 58c:	0f 91       	pop	r16
 58e:	0f 90       	pop	r0
 590:	0f be       	out	0x3f, r0	; 63
 592:	0f 90       	pop	r0
 594:	1f 90       	pop	r1
 596:	18 95       	reti

00000598 <main>:
 598:	8c 98       	cbi	0x11, 4	; 17
 59a:	94 9a       	sbi	0x12, 4	; 18
 59c:	8e 98       	cbi	0x11, 6	; 17
 59e:	96 9a       	sbi	0x12, 6	; 18
 5a0:	0e 94 1d 01 	call	0x23a	; 0x23a <LCD_Ini>
 5a4:	80 ef       	ldi	r24, 0xF0	; 240
 5a6:	90 e0       	ldi	r25, 0x00	; 0
 5a8:	0e 94 59 01 	call	0x2b2	; 0x2b2 <LCD_ZapiszText>
 5ac:	80 e0       	ldi	r24, 0x00	; 0
 5ae:	61 e0       	ldi	r22, 0x01	; 1
 5b0:	0e 94 67 01 	call	0x2ce	; 0x2ce <LCD_XY>
 5b4:	81 e0       	ldi	r24, 0x01	; 1
 5b6:	91 e0       	ldi	r25, 0x01	; 1
 5b8:	0e 94 59 01 	call	0x2b2	; 0x2b2 <LCD_ZapiszText>
 5bc:	0e 94 49 00 	call	0x92	; 0x92 <vInitPipe>
 5c0:	80 eb       	ldi	r24, 0xB0	; 176
 5c2:	94 e0       	ldi	r25, 0x04	; 4
 5c4:	0e 94 f1 02 	call	0x5e2	; 0x5e2 <USART_Init>
 5c8:	0e 94 24 02 	call	0x448	; 0x448 <vEnableInterrupts>
 5cc:	82 e1       	ldi	r24, 0x12	; 18
 5ce:	91 e0       	ldi	r25, 0x01	; 1
 5d0:	0e 94 1d 03 	call	0x63a	; 0x63a <USART_Transmit_string>
 5d4:	83 ec       	ldi	r24, 0xC3	; 195
 5d6:	90 e0       	ldi	r25, 0x00	; 0
 5d8:	0e 94 8f 00 	call	0x11e	; 0x11e <vSetPendingTask>
 5dc:	0e 94 84 00 	call	0x108	; 0x108 <vDispathTask>
 5e0:	fd cf       	rjmp	.-6      	; 0x5dc <main+0x44>

000005e2 <USART_Init>:
 5e2:	9c 01       	movw	r18, r24
 5e4:	40 e0       	ldi	r20, 0x00	; 0
 5e6:	50 e0       	ldi	r21, 0x00	; 0
 5e8:	64 e0       	ldi	r22, 0x04	; 4
 5ea:	22 0f       	add	r18, r18
 5ec:	33 1f       	adc	r19, r19
 5ee:	44 1f       	adc	r20, r20
 5f0:	55 1f       	adc	r21, r21
 5f2:	6a 95       	dec	r22
 5f4:	d1 f7       	brne	.-12     	; 0x5ea <USART_Init+0x8>
 5f6:	60 e0       	ldi	r22, 0x00	; 0
 5f8:	72 e1       	ldi	r23, 0x12	; 18
 5fa:	8a e7       	ldi	r24, 0x7A	; 122
 5fc:	90 e0       	ldi	r25, 0x00	; 0
 5fe:	0e 94 5f 03 	call	0x6be	; 0x6be <__udivmodsi4>
 602:	c9 01       	movw	r24, r18
 604:	da 01       	movw	r26, r20
 606:	01 97       	sbiw	r24, 0x01	; 1
 608:	a1 09       	sbc	r26, r1
 60a:	b1 09       	sbc	r27, r1
 60c:	29 2f       	mov	r18, r25
 60e:	3a 2f       	mov	r19, r26
 610:	4b 2f       	mov	r20, r27
 612:	55 27       	eor	r21, r21
 614:	01 96       	adiw	r24, 0x01	; 1
 616:	a1 1d       	adc	r26, r1
 618:	b1 1d       	adc	r27, r1
 61a:	20 bd       	out	0x20, r18	; 32
 61c:	81 50       	subi	r24, 0x01	; 1
 61e:	89 b9       	out	0x09, r24	; 9
 620:	88 e9       	ldi	r24, 0x98	; 152
 622:	8a b9       	out	0x0a, r24	; 10
 624:	86 e8       	ldi	r24, 0x86	; 134
 626:	80 bd       	out	0x20, r24	; 32
 628:	08 95       	ret

0000062a <USART_Transmit>:
 62a:	5d 9b       	sbis	0x0b, 5	; 11
 62c:	fe cf       	rjmp	.-4      	; 0x62a <USART_Transmit>
 62e:	8c b9       	out	0x0c, r24	; 12
 630:	08 95       	ret

00000632 <USART_Receive>:
 632:	5f 9b       	sbis	0x0b, 7	; 11
 634:	fe cf       	rjmp	.-4      	; 0x632 <USART_Receive>
 636:	8c b1       	in	r24, 0x0c	; 12
 638:	08 95       	ret

0000063a <USART_Transmit_string>:
 63a:	fc 01       	movw	r30, r24
 63c:	04 c0       	rjmp	.+8      	; 0x646 <USART_Transmit_string+0xc>
 63e:	5d 9b       	sbis	0x0b, 5	; 11
 640:	fe cf       	rjmp	.-4      	; 0x63e <USART_Transmit_string+0x4>
 642:	31 96       	adiw	r30, 0x01	; 1
 644:	8c b9       	out	0x0c, r24	; 12
 646:	80 81       	ld	r24, Z
 648:	88 23       	and	r24, r24
 64a:	c9 f7       	brne	.-14     	; 0x63e <USART_Transmit_string+0x4>
 64c:	08 95       	ret

0000064e <CRC16>:
 64e:	dc 01       	movw	r26, r24
 650:	fc 01       	movw	r30, r24
 652:	2f ef       	ldi	r18, 0xFF	; 255
 654:	3f ef       	ldi	r19, 0xFF	; 255
 656:	40 e0       	ldi	r20, 0x00	; 0
 658:	5e ef       	ldi	r21, 0xFE	; 254
 65a:	61 e0       	ldi	r22, 0x01	; 1
 65c:	70 ea       	ldi	r23, 0xA0	; 160
 65e:	80 81       	ld	r24, Z
 660:	88 23       	and	r24, r24
 662:	09 f4       	brne	.+2      	; 0x666 <CRC16+0x18>
 664:	50 83       	st	Z, r21
 666:	81 91       	ld	r24, Z+
 668:	90 e0       	ldi	r25, 0x00	; 0
 66a:	28 27       	eor	r18, r24
 66c:	39 27       	eor	r19, r25
 66e:	80 e0       	ldi	r24, 0x00	; 0
 670:	36 95       	lsr	r19
 672:	27 95       	ror	r18
 674:	20 ff       	sbrs	r18, 0
 676:	02 c0       	rjmp	.+4      	; 0x67c <CRC16+0x2e>
 678:	26 27       	eor	r18, r22
 67a:	37 27       	eor	r19, r23
 67c:	8f 5f       	subi	r24, 0xFF	; 255
 67e:	88 30       	cpi	r24, 0x08	; 8
 680:	b9 f7       	brne	.-18     	; 0x670 <CRC16+0x22>
 682:	4f 5f       	subi	r20, 0xFF	; 255
 684:	45 30       	cpi	r20, 0x05	; 5
 686:	59 f7       	brne	.-42     	; 0x65e <CRC16+0x10>
 688:	15 96       	adiw	r26, 0x05	; 5
 68a:	2c 93       	st	X, r18
 68c:	15 97       	sbiw	r26, 0x05	; 5
 68e:	16 96       	adiw	r26, 0x06	; 6
 690:	3c 93       	st	X, r19
 692:	c9 01       	movw	r24, r18
 694:	08 95       	ret

00000696 <__udivmodhi4>:
 696:	aa 1b       	sub	r26, r26
 698:	bb 1b       	sub	r27, r27
 69a:	51 e1       	ldi	r21, 0x11	; 17
 69c:	07 c0       	rjmp	.+14     	; 0x6ac <__udivmodhi4_ep>

0000069e <__udivmodhi4_loop>:
 69e:	aa 1f       	adc	r26, r26
 6a0:	bb 1f       	adc	r27, r27
 6a2:	a6 17       	cp	r26, r22
 6a4:	b7 07       	cpc	r27, r23
 6a6:	10 f0       	brcs	.+4      	; 0x6ac <__udivmodhi4_ep>
 6a8:	a6 1b       	sub	r26, r22
 6aa:	b7 0b       	sbc	r27, r23

000006ac <__udivmodhi4_ep>:
 6ac:	88 1f       	adc	r24, r24
 6ae:	99 1f       	adc	r25, r25
 6b0:	5a 95       	dec	r21
 6b2:	a9 f7       	brne	.-22     	; 0x69e <__udivmodhi4_loop>
 6b4:	80 95       	com	r24
 6b6:	90 95       	com	r25
 6b8:	bc 01       	movw	r22, r24
 6ba:	cd 01       	movw	r24, r26
 6bc:	08 95       	ret

000006be <__udivmodsi4>:
 6be:	a1 e2       	ldi	r26, 0x21	; 33
 6c0:	1a 2e       	mov	r1, r26
 6c2:	aa 1b       	sub	r26, r26
 6c4:	bb 1b       	sub	r27, r27
 6c6:	fd 01       	movw	r30, r26
 6c8:	0d c0       	rjmp	.+26     	; 0x6e4 <__udivmodsi4_ep>

000006ca <__udivmodsi4_loop>:
 6ca:	aa 1f       	adc	r26, r26
 6cc:	bb 1f       	adc	r27, r27
 6ce:	ee 1f       	adc	r30, r30
 6d0:	ff 1f       	adc	r31, r31
 6d2:	a2 17       	cp	r26, r18
 6d4:	b3 07       	cpc	r27, r19
 6d6:	e4 07       	cpc	r30, r20
 6d8:	f5 07       	cpc	r31, r21
 6da:	20 f0       	brcs	.+8      	; 0x6e4 <__udivmodsi4_ep>
 6dc:	a2 1b       	sub	r26, r18
 6de:	b3 0b       	sbc	r27, r19
 6e0:	e4 0b       	sbc	r30, r20
 6e2:	f5 0b       	sbc	r31, r21

000006e4 <__udivmodsi4_ep>:
 6e4:	66 1f       	adc	r22, r22
 6e6:	77 1f       	adc	r23, r23
 6e8:	88 1f       	adc	r24, r24
 6ea:	99 1f       	adc	r25, r25
 6ec:	1a 94       	dec	r1
 6ee:	69 f7       	brne	.-38     	; 0x6ca <__udivmodsi4_loop>
 6f0:	60 95       	com	r22
 6f2:	70 95       	com	r23
 6f4:	80 95       	com	r24
 6f6:	90 95       	com	r25
 6f8:	9b 01       	movw	r18, r22
 6fa:	ac 01       	movw	r20, r24
 6fc:	bd 01       	movw	r22, r26
 6fe:	cf 01       	movw	r24, r30
 700:	08 95       	ret

00000702 <_exit>:
 702:	f8 94       	cli

00000704 <__stop_program>:
 704:	ff cf       	rjmp	.-2      	; 0x704 <__stop_program>
